; Function Attrs: mustprogress uwtable
define void @_ZN3gmx16CheckpointHelper12scheduleTaskEldRKSt8functionIFvS1_IFvvEEEE(ptr noundef nonnull align 8 dereferenceable(120) %0, i64 noundef %1, double noundef %2, ptr noundef nonnull align 8 dereferenceable(32) %3) unnamed_addr #2 align 2 personality ptr @__gxx_personality_v0 {
  %5 = alloca %"class.std::function.85", align 8
  %6 = getelementptr inbounds i8, ptr %0, i64 56
  %7 = load i64, ptr %6, align 8
  %.not = icmp eq i64 %7, %1
  br i1 %.not, label %8, label %_ZNSt8functionIFvvEED2Ev.exit

8:                                                ; preds = %4
  %9 = getelementptr inbounds i8, ptr %0, i64 64
  %10 = load i8, ptr %9, align 8
  %11 = trunc i8 %10 to i1
  br i1 %11, label %12, label %_ZNSt8functionIFvvEED2Ev.exit

12:                                               ; preds = %8
  %13 = getelementptr inbounds i8, ptr %5, i64 16
  %14 = getelementptr inbounds i8, ptr %5, i64 24
  %15 = getelementptr inbounds i8, ptr %5, i64 8
  store i64 0, ptr %15, align 8
  %16 = tail call noalias noundef nonnull dereferenceable(24) ptr @_Znwm(i64 noundef 24) #19
  store ptr %0, ptr %16, align 16
  %.sroa.2.0..sroa_idx = getelementptr inbounds i8, ptr %16, i64 8
  store i64 %1, ptr %.sroa.2.0..sroa_idx, align 8
  %.sroa.3.0..sroa_idx = getelementptr inbounds i8, ptr %16, i64 16
  store double %2, ptr %.sroa.3.0..sroa_idx, align 16
  store ptr %16, ptr %5, align 8
  store ptr @"_ZNSt17_Function_handlerIFvvEZN3gmx16CheckpointHelper12scheduleTaskEldRKSt8functionIFvS3_IS0_EEEE3$_0E9_M_invokeERKSt9_Any_data", ptr %14, align 8
  store ptr @"_ZNSt17_Function_handlerIFvvEZN3gmx16CheckpointHelper12scheduleTaskEldRKSt8functionIFvS3_IS0_EEEE3$_0E10_M_managerERSt9_Any_dataRKSB_St18_Manager_operation", ptr %13, align 8
  %17 = getelementptr inbounds i8, ptr %3, i64 16
  %18 = load ptr, ptr %17, align 8
  %.not.i.i = icmp eq ptr %18, null
  br i1 %.not.i.i, label %19, label %20

19:                                               ; preds = %12
  invoke void @_ZSt25__throw_bad_function_callv() #20
          to label %.noexc unwind label %29

.noexc:                                           ; preds = %19
  unreachable

20:                                               ; preds = %12
  %21 = getelementptr inbounds i8, ptr %3, i64 24
  %22 = load ptr, ptr %21, align 8
  invoke void %22(ptr noundef nonnull align 8 dereferenceable(16) %3, ptr noundef nonnull align 8 dereferenceable(32) %5)
          to label %_ZNKSt8functionIFvS_IFvvEEEEclES1_.exit unwind label %29

_ZNKSt8functionIFvS_IFvvEEEEclES1_.exit:          ; preds = %20
  %23 = load ptr, ptr %13, align 8
  %.not.i.i7 = icmp eq ptr %23, null
  br i1 %.not.i.i7, label %_ZNSt8functionIFvvEED2Ev.exit, label %24

24:                                               ; preds = %_ZNKSt8functionIFvS_IFvvEEEEclES1_.exit
  %25 = invoke noundef zeroext i1 %23(ptr noundef nonnull align 8 dereferenceable(16) %5, ptr noundef nonnull align 8 dereferenceable(16) %5, i32 noundef 3)
          to label %_ZNSt8functionIFvvEED2Ev.exit unwind label %26

26:                                               ; preds = %24
  %27 = landingpad { ptr, i32 }
          catch ptr null
  %28 = extractvalue { ptr, i32 } %27, 0
  call void @__clang_call_terminate(ptr %28) #21
  unreachable

_ZNSt8functionIFvvEED2Ev.exit:                    ; preds = %24, %_ZNKSt8functionIFvS_IFvvEEEEclES1_.exit, %4, %8
  ret void

29:                                               ; preds = %20, %19
  %30 = landingpad { ptr, i32 }
          cleanup
  %31 = load ptr, ptr %13, align 8
  %.not.i.i8 = icmp eq ptr %31, null
  br i1 %.not.i.i8, label %_ZNSt8functionIFvvEED2Ev.exit9, label %32

32:                                               ; preds = %29
  %33 = invoke noundef zeroext i1 %31(ptr noundef nonnull align 8 dereferenceable(16) %5, ptr noundef nonnull align 8 dereferenceable(16) %5, i32 noundef 3)
          to label %_ZNSt8functionIFvvEED2Ev.exit9 unwind label %34

34:                                               ; preds = %32
  %35 = landingpad { ptr, i32 }
          catch ptr null
  %36 = extractvalue { ptr, i32 } %35, 0
  call void @__clang_call_terminate(ptr %36) #21
  unreachable

_ZNSt8functionIFvvEED2Ev.exit9:                   ; preds = %29, %32
  resume { ptr, i32 } %30
}